target datalayout = "e-m:e-p270:32:32-p271:32:32-p272:64:64-i64:64-i128:128-f80:128-n8:16:32:64-S128"
target triple = "x86_64-pc-linux-gnu"

%struct.Kit_DsdNtk_t_ = type { i16, i16, i16, i16, ptr, ptr, ptr }
%struct.Kit_DsdObj_t_ = type { i32, [0 x i16] }

; Function Attrs: inlinehint nounwind uwtable
define internal i32 @Kit_DsdLitSupport(ptr noundef %0, i32 noundef %1) #2 {
  %3 = alloca ptr, align 8
  %4 = alloca i32, align 4
  %5 = alloca i32, align 4
  store ptr %0, ptr %3, align 8, !tbaa !3
  store i32 %1, ptr %4, align 4, !tbaa !10
  call void @llvm.lifetime.start.p0(i64 4, ptr %5) #7
  %6 = load i32, ptr %4, align 4, !tbaa !10
  %7 = call i32 @Abc_Lit2Var(i32 noundef %6)
  store i32 %7, ptr %5, align 4, !tbaa !10
  %8 = load ptr, ptr %3, align 8, !tbaa !3
  %9 = getelementptr inbounds nuw %struct.Kit_DsdNtk_t_, ptr %8, i32 0, i32 5
  %10 = load ptr, ptr %9, align 8, !tbaa !29
  %11 = icmp ne ptr %10, null
  br i1 %11, label %12, label %37

12:                                               ; preds = %2
  %13 = load i32, ptr %5, align 4, !tbaa !10
  %14 = load ptr, ptr %3, align 8, !tbaa !3
  %15 = getelementptr inbounds nuw %struct.Kit_DsdNtk_t_, ptr %14, i32 0, i32 0
  %16 = load i16, ptr %15, align 8, !tbaa !28
  %17 = zext i16 %16 to i32
  %18 = icmp slt i32 %13, %17
  br i1 %18, label %19, label %22

19:                                               ; preds = %12
  %20 = load i32, ptr %5, align 4, !tbaa !10
  %21 = shl i32 1, %20
  br label %35

22:                                               ; preds = %12
  %23 = load ptr, ptr %3, align 8, !tbaa !3
  %24 = getelementptr inbounds nuw %struct.Kit_DsdNtk_t_, ptr %23, i32 0, i32 5
  %25 = load ptr, ptr %24, align 8, !tbaa !29
  %26 = load i32, ptr %5, align 4, !tbaa !10
  %27 = load ptr, ptr %3, align 8, !tbaa !3
  %28 = getelementptr inbounds nuw %struct.Kit_DsdNtk_t_, ptr %27, i32 0, i32 0
  %29 = load i16, ptr %28, align 8, !tbaa !28
  %30 = zext i16 %29 to i32
  %31 = sub nsw i32 %26, %30
  %32 = sext i32 %31 to i64
  %33 = getelementptr inbounds i32, ptr %25, i64 %32
  %34 = load i32, ptr %33, align 4, !tbaa !10
  br label %35

35:                                               ; preds = %22, %19
  %36 = phi i32 [ %21, %19 ], [ %34, %22 ]
  br label %38

37:                                               ; preds = %2
  br label %38

38:                                               ; preds = %37, %35
  %39 = phi i32 [ %36, %35 ], [ 0, %37 ]
  call void @llvm.lifetime.end.p0(i64 4, ptr %5) #7
  ret i32 %39
}

; Function Attrs: inlinehint nounwind uwtable
define internal i32 @Abc_Lit2Var(i32 noundef %0) #2 {
  %2 = alloca i32, align 4
  store i32 %0, ptr %2, align 4, !tbaa !10
  %3 = load i32, ptr %2, align 4, !tbaa !10
  %4 = ashr i32 %3, 1
  ret i32 %4
}

; Function Attrs: inlinehint nounwind uwtable
define internal i32 @Kit_DsdLitIsLeaf(ptr noundef %0, i32 noundef %1) #2 {
  %3 = alloca ptr, align 8
  %4 = alloca i32, align 4
  %5 = alloca i32, align 4
  store ptr %0, ptr %3, align 8, !tbaa !3
  store i32 %1, ptr %4, align 4, !tbaa !10
  call void @llvm.lifetime.start.p0(i64 4, ptr %5) #7
  %6 = load i32, ptr %4, align 4, !tbaa !10
  %7 = call i32 @Abc_Lit2Var(i32 noundef %6)
  store i32 %7, ptr %5, align 4, !tbaa !10
  %8 = load i32, ptr %5, align 4, !tbaa !10
  %9 = load ptr, ptr %3, align 8, !tbaa !3
  %10 = getelementptr inbounds nuw %struct.Kit_DsdNtk_t_, ptr %9, i32 0, i32 0
  %11 = load i16, ptr %10, align 8, !tbaa !28
  %12 = zext i16 %11 to i32
  %13 = icmp slt i32 %8, %12
  %14 = zext i1 %13 to i32
  call void @llvm.lifetime.end.p0(i64 4, ptr %5) #7
  ret i32 %14
}

; Function Attrs: nounwind uwtable
define void @Lpk_CreateVarOrder(ptr noundef %0, ptr noundef %1) #0 {
  %3 = alloca ptr, align 8
  %4 = alloca ptr, align 8
  %5 = alloca ptr, align 8
  %6 = alloca i32, align 4
  %7 = alloca i32, align 4
  %8 = alloca [16 x i32], align 16
  %9 = alloca [16 x i32], align 16
  %10 = alloca i32, align 4
  %11 = alloca i32, align 4
  %12 = alloca i32, align 4
  %13 = alloca i32, align 4
  %14 = alloca i32, align 4
  %15 = alloca i32, align 4
  store ptr %0, ptr %3, align 8, !tbaa !3
  store ptr %1, ptr %4, align 8, !tbaa !8
  call void @llvm.lifetime.start.p0(i64 8, ptr %5) #7
  call void @llvm.lifetime.start.p0(i64 4, ptr %6) #7
  call void @llvm.lifetime.start.p0(i64 4, ptr %7) #7
  call void @llvm.lifetime.start.p0(i64 64, ptr %8) #7
  call void @llvm.lifetime.start.p0(i64 64, ptr %9) #7
  call void @llvm.lifetime.start.p0(i64 4, ptr %10) #7
  call void @llvm.lifetime.start.p0(i64 4, ptr %11) #7
  call void @llvm.lifetime.start.p0(i64 4, ptr %12) #7
  call void @llvm.lifetime.start.p0(i64 4, ptr %13) #7
  call void @llvm.lifetime.start.p0(i64 4, ptr %14) #7
  call void @llvm.lifetime.start.p0(i64 4, ptr %15) #7
  store i32 0, ptr %13, align 4, !tbaa !10
  br label %16

16:                                               ; preds = %127, %2
  %17 = load i32, ptr %13, align 4, !tbaa !10
  %18 = load ptr, ptr %3, align 8, !tbaa !3
  %19 = getelementptr inbounds nuw %struct.Kit_DsdNtk_t_, ptr %18, i32 0, i32 2
  %20 = load i16, ptr %19, align 4, !tbaa !12
  %21 = zext i16 %20 to i32
  %22 = icmp slt i32 %17, %21
  br i1 %22, label %23, label %32

23:                                               ; preds = %16
  %24 = load ptr, ptr %3, align 8, !tbaa !3
  %25 = getelementptr inbounds nuw %struct.Kit_DsdNtk_t_, ptr %24, i32 0, i32 6
  %26 = load ptr, ptr %25, align 8, !tbaa !17
  %27 = load i32, ptr %13, align 4, !tbaa !10
  %28 = sext i32 %27 to i64
  %29 = getelementptr inbounds ptr, ptr %26, i64 %28
  %30 = load ptr, ptr %29, align 8, !tbaa !18
  store ptr %30, ptr %5, align 8, !tbaa !18
  %31 = icmp ne ptr %30, null
  br label %32

32:                                               ; preds = %23, %16
  %33 = phi i1 [ false, %16 ], [ %31, %23 ]
  br i1 %33, label %34, label %130

34:                                               ; preds = %32
  store i32 0, ptr %10, align 4, !tbaa !10
  store i32 0, ptr %6, align 4, !tbaa !10
  store i32 0, ptr %7, align 4, !tbaa !10
  br label %35

35:                                               ; preds = %70, %34
  %36 = load i32, ptr %7, align 4, !tbaa !10
  %37 = load ptr, ptr %5, align 8, !tbaa !18
  %38 = load i32, ptr %37, align 4
  %39 = lshr i32 %38, 26
  %40 = icmp ult i32 %36, %39
  br i1 %40, label %41, label %49

41:                                               ; preds = %35
  %42 = load ptr, ptr %5, align 8, !tbaa !18
  %43 = getelementptr inbounds nuw %struct.Kit_DsdObj_t_, ptr %42, i32 0, i32 1
  %44 = load i32, ptr %7, align 4, !tbaa !10
  %45 = zext i32 %44 to i64
  %46 = getelementptr inbounds nuw [0 x i16], ptr %43, i64 0, i64 %45
  %47 = load i16, ptr %46, align 2, !tbaa !20
  %48 = zext i16 %47 to i32
  store i32 %48, ptr %12, align 4, !tbaa !10
  br label %49

49:                                               ; preds = %41, %35
  %50 = phi i1 [ false, %35 ], [ true, %41 ]
  br i1 %50, label %51, label %73

51:                                               ; preds = %49
  %52 = load ptr, ptr %3, align 8, !tbaa !3
  %53 = load i32, ptr %12, align 4, !tbaa !10
  %54 = call i32 @Kit_DsdLitIsLeaf(ptr noundef %52, i32 noundef %53)
  %55 = icmp ne i32 %54, 0
  br i1 %55, label %56, label %63

56:                                               ; preds = %51
  %57 = load i32, ptr %12, align 4, !tbaa !10
  %58 = call i32 @Abc_Lit2Var(i32 noundef %57)
  %59 = load i32, ptr %10, align 4, !tbaa !10
  %60 = add nsw i32 %59, 1
  store i32 %60, ptr %10, align 4, !tbaa !10
  %61 = sext i32 %59 to i64
  %62 = getelementptr inbounds [16 x i32], ptr %8, i64 0, i64 %61
  store i32 %58, ptr %62, align 4, !tbaa !10
  br label %69

63:                                               ; preds = %51
  %64 = load ptr, ptr %3, align 8, !tbaa !3
  %65 = load i32, ptr %12, align 4, !tbaa !10
  %66 = call i32 @Kit_DsdLitSupport(ptr noundef %64, i32 noundef %65)
  %67 = load i32, ptr %6, align 4, !tbaa !10
  %68 = or i32 %67, %66
  store i32 %68, ptr %6, align 4, !tbaa !10
  br label %69

69:                                               ; preds = %63, %56
  br label %70

70:                                               ; preds = %69
  %71 = load i32, ptr %7, align 4, !tbaa !10
  %72 = add i32 %71, 1
  store i32 %72, ptr %7, align 4, !tbaa !10
  br label %35, !llvm.loop !21

73:                                               ; preds = %49
  store i32 0, ptr %11, align 4, !tbaa !10
  store i32 0, ptr %15, align 4, !tbaa !10
  br label %74

74:                                               ; preds = %90, %73
  %75 = load i32, ptr %15, align 4, !tbaa !10
  %76 = icmp slt i32 %75, 16
  br i1 %76, label %77, label %93

77:                                               ; preds = %74
  %78 = load i32, ptr %6, align 4, !tbaa !10
  %79 = load i32, ptr %15, align 4, !tbaa !10
  %80 = shl i32 1, %79
  %81 = and i32 %78, %80
  %82 = icmp ne i32 %81, 0
  br i1 %82, label %83, label %89

83:                                               ; preds = %77
  %84 = load i32, ptr %15, align 4, !tbaa !10
  %85 = load i32, ptr %11, align 4, !tbaa !10
  %86 = add nsw i32 %85, 1
  store i32 %86, ptr %11, align 4, !tbaa !10
  %87 = sext i32 %85 to i64
  %88 = getelementptr inbounds [16 x i32], ptr %9, i64 0, i64 %87
  store i32 %84, ptr %88, align 4, !tbaa !10
  br label %89

89:                                               ; preds = %83, %77
  br label %90

90:                                               ; preds = %89
  %91 = load i32, ptr %15, align 4, !tbaa !10
  %92 = add nsw i32 %91, 1
  store i32 %92, ptr %15, align 4, !tbaa !10
  br label %74, !llvm.loop !23

93:                                               ; preds = %74
  store i32 0, ptr %14, align 4, !tbaa !10
  br label %94

94:                                               ; preds = %123, %93
  %95 = load i32, ptr %14, align 4, !tbaa !10
  %96 = load i32, ptr %10, align 4, !tbaa !10
  %97 = icmp slt i32 %95, %96
  br i1 %97, label %98, label %126

98:                                               ; preds = %94
  store i32 0, ptr %15, align 4, !tbaa !10
  br label %99

99:                                               ; preds = %119, %98
  %100 = load i32, ptr %15, align 4, !tbaa !10
  %101 = load i32, ptr %11, align 4, !tbaa !10
  %102 = icmp slt i32 %100, %101
  br i1 %102, label %103, label %122

103:                                              ; preds = %99
  %104 = load ptr, ptr %4, align 8, !tbaa !8
  %105 = load i32, ptr %14, align 4, !tbaa !10
  %106 = sext i32 %105 to i64
  %107 = getelementptr inbounds [16 x i32], ptr %8, i64 0, i64 %106
  %108 = load i32, ptr %107, align 4, !tbaa !10
  %109 = sext i32 %108 to i64
  %110 = getelementptr inbounds [16 x i8], ptr %104, i64 %109
  %111 = load i32, ptr %15, align 4, !tbaa !10
  %112 = sext i32 %111 to i64
  %113 = getelementptr inbounds [16 x i32], ptr %9, i64 0, i64 %112
  %114 = load i32, ptr %113, align 4, !tbaa !10
  %115 = sext i32 %114 to i64
  %116 = getelementptr inbounds [16 x i8], ptr %110, i64 0, i64 %115
  %117 = load i8, ptr %116, align 1, !tbaa !24
  %118 = add i8 %117, 1
  store i8 %118, ptr %116, align 1, !tbaa !24
  br label %119

119:                                              ; preds = %103
  %120 = load i32, ptr %15, align 4, !tbaa !10
  %121 = add nsw i32 %120, 1
  store i32 %121, ptr %15, align 4, !tbaa !10
  br label %99, !llvm.loop !25

122:                                              ; preds = %99
  br label %123

123:                                              ; preds = %122
  %124 = load i32, ptr %14, align 4, !tbaa !10
  %125 = add nsw i32 %124, 1
  store i32 %125, ptr %14, align 4, !tbaa !10
  br label %94, !llvm.loop !26

126:                                              ; preds = %94
  br label %127

127:                                              ; preds = %126
  %128 = load i32, ptr %13, align 4, !tbaa !10
  %129 = add nsw i32 %128, 1
  store i32 %129, ptr %13, align 4, !tbaa !10
  br label %16, !llvm.loop !27

130:                                              ; preds = %32
  call void @llvm.lifetime.end.p0(i64 4, ptr %15) #7
  call void @llvm.lifetime.end.p0(i64 4, ptr %14) #7
  call void @llvm.lifetime.end.p0(i64 4, ptr %13) #7
  call void @llvm.lifetime.end.p0(i64 4, ptr %12) #7
  call void @llvm.lifetime.end.p0(i64 4, ptr %11) #7
  call void @llvm.lifetime.end.p0(i64 4, ptr %10) #7
  call void @llvm.lifetime.end.p0(i64 64, ptr %9) #7
  call void @llvm.lifetime.end.p0(i64 64, ptr %8) #7
  call void @llvm.lifetime.end.p0(i64 4, ptr %7) #7
  call void @llvm.lifetime.end.p0(i64 4, ptr %6) #7
  call void @llvm.lifetime.end.p0(i64 8, ptr %5) #7
  ret void
}