; Function Attrs: nofree norecurse nosync nounwind memory(read, argmem: readwrite, inaccessiblemem: none) uwtable
define void @Lpk_CreateVarOrder(ptr noundef readonly captures(none) %0, ptr noundef captures(none) %1) local_unnamed_addr #0 {
  %3 = alloca [16 x i32], align 16
  %4 = alloca [16 x i32], align 16
  call void @llvm.lifetime.start.p0(i64 64, ptr nonnull %3) #12
  call void @llvm.lifetime.start.p0(i64 64, ptr nonnull %4) #12
  %5 = getelementptr inbounds nuw i8, ptr %0, i64 24
  %6 = getelementptr inbounds nuw i8, ptr %0, i64 4
  %7 = load i16, ptr %6, align 4, !tbaa !3
  %.not61 = icmp eq i16 %7, 0
  br i1 %.not61, label %.critedge, label %.lr.ph59

.lr.ph59:                                         ; preds = %2
  %8 = getelementptr inbounds nuw i8, ptr %0, i64 16
  br label %9

9:                                                ; preds = %.lr.ph59, %._crit_edge57
  %10 = phi i16 [ %7, %.lr.ph59 ], [ %57, %._crit_edge57 ]
  %indvars.iv77 = phi i64 [ 0, %.lr.ph59 ], [ %indvars.iv.next78, %._crit_edge57 ]
  %11 = load ptr, ptr %5, align 8, !tbaa !11
  %12 = getelementptr inbounds nuw ptr, ptr %11, i64 %indvars.iv77
  %13 = load ptr, ptr %12, align 8, !tbaa !12
  %.not = icmp eq ptr %13, null
  br i1 %.not, label %.critedge, label %.preheader47

.preheader47:                                     ; preds = %9
  %14 = load i32, ptr %13, align 4
  %.not62 = icmp ult i32 %14, 67108864
  br i1 %.not62, label %.critedge2.preheader, label %.lr.ph

.lr.ph:                                           ; preds = %.preheader47
  %15 = lshr i32 %14, 26
  %16 = getelementptr inbounds nuw i8, ptr %13, i64 4
  %.val = load i16, ptr %0, align 8, !tbaa !14
  %17 = zext i16 %.val to i32
  %wide.trip.count = zext nneg i32 %15 to i64
  br label %18

.critedge2.preheader:                             ; preds = %36, %.preheader47
  %.039.lcssa = phi i32 [ 0, %.preheader47 ], [ %.140, %36 ]
  %.035.lcssa = phi i32 [ 0, %.preheader47 ], [ %.136, %36 ]
  br label %49

18:                                               ; preds = %.lr.ph, %36
  %indvars.iv = phi i64 [ 0, %.lr.ph ], [ %indvars.iv.next, %36 ]
  %.03550 = phi i32 [ 0, %.lr.ph ], [ %.136, %36 ]
  %.03949 = phi i32 [ 0, %.lr.ph ], [ %.140, %36 ]
  %19 = getelementptr inbounds nuw [0 x i16], ptr %16, i64 0, i64 %indvars.iv
  %20 = load i16, ptr %19, align 2, !tbaa !15
  %21 = lshr i16 %20, 1
  %22 = zext nneg i16 %21 to i32
  %.not45 = icmp ult i16 %21, %.val
  br i1 %.not45, label %23, label %27

23:                                               ; preds = %18
  %24 = add nsw i32 %.03949, 1
  %25 = sext i32 %.03949 to i64
  %26 = getelementptr inbounds [16 x i32], ptr %3, i64 0, i64 %25
  store i32 %22, ptr %26, align 4, !tbaa !16
  br label %36

27:                                               ; preds = %18
  %28 = load ptr, ptr %8, align 8, !tbaa !18
  %.not.i = icmp eq ptr %28, null
  br i1 %.not.i, label %Kit_DsdLitSupport.exit, label %29

29:                                               ; preds = %27
  %30 = sub nuw nsw i32 %22, %17
  %31 = zext nneg i32 %30 to i64
  %32 = getelementptr inbounds nuw i32, ptr %28, i64 %31
  %33 = load i32, ptr %32, align 4, !tbaa !16
  br label %Kit_DsdLitSupport.exit

Kit_DsdLitSupport.exit:                           ; preds = %27, %29
  %34 = phi i32 [ %33, %29 ], [ 0, %27 ]
  %35 = or i32 %34, %.03550
  br label %36

36:                                               ; preds = %23, %Kit_DsdLitSupport.exit
  %.140 = phi i32 [ %24, %23 ], [ %.03949, %Kit_DsdLitSupport.exit ]
  %.136 = phi i32 [ %.03550, %23 ], [ %35, %Kit_DsdLitSupport.exit ]
  %indvars.iv.next = add nuw nsw i64 %indvars.iv, 1
  %exitcond.not = icmp eq i64 %indvars.iv.next, %wide.trip.count
  br i1 %exitcond.not, label %.critedge2.preheader, label %18, !llvm.loop !19

.preheader46:                                     ; preds = %.critedge2
  %37 = icmp sgt i32 %.039.lcssa, 0
  %38 = icmp sgt i32 %.138, 0
  %or.cond = select i1 %37, i1 %38, i1 false
  br i1 %or.cond, label %.preheader.us.preheader, label %._crit_edge57

.preheader.us.preheader:                          ; preds = %.preheader46
  %wide.trip.count75 = zext nneg i32 %.039.lcssa to i64
  %wide.trip.count70 = zext nneg i32 %.138 to i64
  br label %.preheader.us

.preheader.us:                                    ; preds = %.preheader.us.preheader, %._crit_edge.us
  %indvars.iv72 = phi i64 [ 0, %.preheader.us.preheader ], [ %indvars.iv.next73, %._crit_edge.us ]
  %39 = getelementptr inbounds nuw [16 x i32], ptr %3, i64 0, i64 %indvars.iv72
  %40 = load i32, ptr %39, align 4, !tbaa !16
  %41 = sext i32 %40 to i64
  br label %42

42:                                               ; preds = %.preheader.us, %42
  %indvars.iv66 = phi i64 [ 0, %.preheader.us ], [ %indvars.iv.next67, %42 ]
  %43 = getelementptr inbounds nuw [16 x i32], ptr %4, i64 0, i64 %indvars.iv66
  %44 = load i32, ptr %43, align 4, !tbaa !16
  %45 = sext i32 %44 to i64
  %46 = getelementptr inbounds [16 x i8], ptr %1, i64 %41, i64 %45
  %47 = load i8, ptr %46, align 1, !tbaa !21
  %48 = add i8 %47, 1
  store i8 %48, ptr %46, align 1, !tbaa !21
  %indvars.iv.next67 = add nuw nsw i64 %indvars.iv66, 1
  %exitcond71.not = icmp eq i64 %indvars.iv.next67, %wide.trip.count70
  br i1 %exitcond71.not, label %._crit_edge.us, label %42, !llvm.loop !22

._crit_edge.us:                                   ; preds = %42
  %indvars.iv.next73 = add nuw nsw i64 %indvars.iv72, 1
  %exitcond76.not = icmp eq i64 %indvars.iv.next73, %wide.trip.count75
  br i1 %exitcond76.not, label %._crit_edge57.loopexit, label %.preheader.us, !llvm.loop !23

49:                                               ; preds = %.critedge2.preheader, %.critedge2
  %.053 = phi i32 [ 0, %.critedge2.preheader ], [ %56, %.critedge2 ]
  %.03752 = phi i32 [ 0, %.critedge2.preheader ], [ %.138, %.critedge2 ]
  %50 = shl nuw nsw i32 1, %.053
  %51 = and i32 %50, %.035.lcssa
  %.not43 = icmp eq i32 %51, 0
  br i1 %.not43, label %.critedge2, label %52

52:                                               ; preds = %49
  %53 = add nsw i32 %.03752, 1
  %54 = sext i32 %.03752 to i64
  %55 = getelementptr inbounds [16 x i32], ptr %4, i64 0, i64 %54
  store i32 %.053, ptr %55, align 4, !tbaa !16
  br label %.critedge2

.critedge2:                                       ; preds = %49, %52
  %.138 = phi i32 [ %53, %52 ], [ %.03752, %49 ]
  %56 = add nuw nsw i32 %.053, 1
  %exitcond65.not = icmp eq i32 %56, 16
  br i1 %exitcond65.not, label %.preheader46, label %49, !llvm.loop !24

._crit_edge57.loopexit:                           ; preds = %._crit_edge.us
  %.pre = load i16, ptr %6, align 4, !tbaa !3
  br label %._crit_edge57

._crit_edge57:                                    ; preds = %._crit_edge57.loopexit, %.preheader46
  %57 = phi i16 [ %.pre, %._crit_edge57.loopexit ], [ %10, %.preheader46 ]
  %indvars.iv.next78 = add nuw nsw i64 %indvars.iv77, 1
  %58 = zext i16 %57 to i64
  %59 = icmp samesign ult i64 %indvars.iv.next78, %58
  br i1 %59, label %9, label %.critedge, !llvm.loop !25

.critedge:                                        ; preds = %9, %._crit_edge57, %2
  call void @llvm.lifetime.end.p0(i64 64, ptr nonnull %4) #12
  call void @llvm.lifetime.end.p0(i64 64, ptr nonnull %3) #12
  ret void
}